target datalayout = "e-m:e-p270:32:32-p271:32:32-p272:64:64-i64:64-i128:128-f80:128-n8:16:32:64-S128"
target triple = "x86_64-pc-linux-gnu"

%"struct.vcpkg::LocalizedString" = type { %"class.std::__cxx11::basic_string" }
%"class.std::__cxx11::basic_string" = type { %"struct.std::__cxx11::basic_string<char>::_Alloc_hider", i64, %union.anon.1 }
%"struct.std::__cxx11::basic_string<char>::_Alloc_hider" = type { ptr }
%union.anon.1 = type { i64, [8 x i8] }
%"struct.vcpkg::Path" = type { %"class.std::__cxx11::basic_string" }
%"struct.vcpkg::Version" = type <{ %"class.std::__cxx11::basic_string", i32, [4 x i8] }>
%"struct.(anonymous namespace)::BuiltinPortTreeRegistryEntry" = type { %"struct.vcpkg::RegistryEntry", %"class.std::__cxx11::basic_string", %"struct.vcpkg::Path", %"struct.vcpkg::Version" }
%"struct.vcpkg::RegistryEntry" = type { ptr }
%"struct.vcpkg::ExpectedT.366" = type <{ %union.anon.367, i8, [7 x i8] }>
%union.anon.367 = type { %"struct.vcpkg::LocalizedString" }
%"struct.vcpkg::Span.369" = type { ptr, i64 }
%"struct.vcpkg::ExpectedHolder.368" = type { %"struct.vcpkg::Span.369" }

; Function Attrs: noreturn nounwind uwtable
define linkonce_odr hidden void @__clang_call_terminate(ptr noundef %0) #8 comdat {
  %2 = call ptr @__cxa_begin_catch(ptr %0) #2
  call void @_ZSt9terminatev() #19
  unreachable
}

; Function Attrs: mustprogress nounwind uwtable
define linkonce_odr dso_local void @_ZN5vcpkg14ExpectedHolderINS_4SpanIKNS_7VersionEEEEC2IS4_TnNSt9enable_ifIXntsr3stdE9is_same_vIS5_NSt9remove_cvINSt16remove_referenceIT_E4typeEE4typeEEEiE4typeELi0EEEOSA_(ptr noundef nonnull align 8 dereferenceable(16) %0, ptr noundef nonnull align 8 dereferenceable(16) %1) unnamed_addr #1 comdat align 2 {
  %3 = alloca ptr, align 8
  %4 = alloca ptr, align 8
  store ptr %0, ptr %3, align 8
  store ptr %1, ptr %4, align 8
  %5 = load ptr, ptr %3, align 8
  %6 = getelementptr inbounds %"struct.vcpkg::ExpectedHolder.368", ptr %5, i32 0, i32 0
  %7 = load ptr, ptr %4, align 8
  call void @llvm.memcpy.p0.p0.i64(ptr align 8 %6, ptr align 8 %7, i64 16, i1 false)
  ret void
}

; Function Attrs: mustprogress nounwind uwtable
define linkonce_odr dso_local void @_ZN5vcpkg9ExpectedTINS_4SpanIKNS_7VersionEEENS_15LocalizedStringEEC2IS4_TnNSt9enable_ifIXaasr3stdE16is_convertible_vIT_S4_Entsr3stdE9is_same_vINSt16remove_referenceIS9_E4typeES5_EEiE4typeELi0EEEOS9_(ptr noundef nonnull align 8 dereferenceable(33) %0, ptr noundef nonnull align 8 dereferenceable(16) %1) unnamed_addr #1 comdat align 2 personality ptr @__gxx_personality_v0 {
  %3 = alloca ptr, align 8
  %4 = alloca ptr, align 8
  store ptr %0, ptr %3, align 8
  store ptr %1, ptr %4, align 8
  %5 = load ptr, ptr %3, align 8
  %6 = getelementptr inbounds %"struct.vcpkg::ExpectedT.366", ptr %5, i32 0, i32 0
  %7 = load ptr, ptr %4, align 8
  invoke void @_ZN5vcpkg14ExpectedHolderINS_4SpanIKNS_7VersionEEEEC2IS4_TnNSt9enable_ifIXntsr3stdE9is_same_vIS5_NSt9remove_cvINSt16remove_referenceIT_E4typeEE4typeEEEiE4typeELi0EEEOSA_(ptr noundef nonnull align 8 dereferenceable(16) %6, ptr noundef nonnull align 8 dereferenceable(16) %7)
          to label %8 unwind label %10

8:                                                ; preds = %2
  %9 = getelementptr inbounds %"struct.vcpkg::ExpectedT.366", ptr %5, i32 0, i32 1
  store i8 0, ptr %9, align 8
  ret void

10:                                               ; preds = %2
  %11 = landingpad { ptr, i32 }
          catch ptr null
  %12 = extractvalue { ptr, i32 } %11, 0
  call void @__clang_call_terminate(ptr %12) #19
  unreachable
}

; Function Attrs: mustprogress nounwind uwtable
define linkonce_odr dso_local void @_ZN5vcpkg4SpanIKNS_7VersionEEC2EPS2_m(ptr noundef nonnull align 8 dereferenceable(16) %0, ptr noundef %1, i64 noundef %2) unnamed_addr #1 comdat align 2 {
  %4 = alloca ptr, align 8
  %5 = alloca ptr, align 8
  %6 = alloca i64, align 8
  store ptr %0, ptr %4, align 8
  store ptr %1, ptr %5, align 8
  store i64 %2, ptr %6, align 8
  %7 = load ptr, ptr %4, align 8
  %8 = getelementptr inbounds %"struct.vcpkg::Span.369", ptr %7, i32 0, i32 0
  %9 = load ptr, ptr %5, align 8
  store ptr %9, ptr %8, align 8
  %10 = getelementptr inbounds %"struct.vcpkg::Span.369", ptr %7, i32 0, i32 1
  %11 = load i64, ptr %6, align 8
  store i64 %11, ptr %10, align 8
  ret void
}

; Function Attrs: mustprogress nounwind uwtable
define internal void @_ZNK12_GLOBAL__N_128BuiltinPortTreeRegistryEntry17get_port_versionsEv(ptr dead_on_unwind noalias writable sret(%"struct.vcpkg::ExpectedT.366") align 8 %0, ptr noundef nonnull align 8 dereferenceable(112) %1) unnamed_addr #1 align 2 {
  %3 = alloca ptr, align 8
  %4 = alloca ptr, align 8
  %5 = alloca %"struct.vcpkg::Span.369", align 8
  store ptr %0, ptr %3, align 8
  store ptr %1, ptr %4, align 8
  %6 = load ptr, ptr %4, align 8
  %7 = getelementptr inbounds %"struct.(anonymous namespace)::BuiltinPortTreeRegistryEntry", ptr %6, i32 0, i32 3
  call void @_ZN5vcpkg4SpanIKNS_7VersionEEC2EPS2_m(ptr noundef nonnull align 8 dereferenceable(16) %5, ptr noundef %7, i64 noundef 1) #2
  call void @_ZN5vcpkg9ExpectedTINS_4SpanIKNS_7VersionEEENS_15LocalizedStringEEC2IS4_TnNSt9enable_ifIXaasr3stdE16is_convertible_vIT_S4_Entsr3stdE9is_same_vINSt16remove_referenceIS9_E4typeES5_EEiE4typeELi0EEEOS9_(ptr noundef nonnull align 8 dereferenceable(33) %0, ptr noundef nonnull align 8 dereferenceable(16) %5) #2
  ret void
}