; Function Attrs: mustprogress nofree norecurse nosync nounwind willreturn memory(argmem: write) uwtable
define internal void @_ZNK12_GLOBAL__N_128BuiltinPortTreeRegistryEntry17get_port_versionsEv(ptr dead_on_unwind noalias nocapture writable writeonly sret(%"struct.vcpkg::ExpectedT.366") align 8 %0, ptr noundef nonnull align 8 dereferenceable(112) %1) unnamed_addr #16 align 2 personality ptr @__gxx_personality_v0 {
  %3 = getelementptr inbounds i8, ptr %1, i64 72
  store ptr %3, ptr %0, align 8
  %.sroa.2.0..sroa_idx = getelementptr inbounds i8, ptr %0, i64 8
  store i64 1, ptr %.sroa.2.0..sroa_idx, align 8
  %4 = getelementptr inbounds i8, ptr %0, i64 32
  store i8 0, ptr %4, align 8
  ret void
}